target datalayout = "e-m:e-p270:32:32-p271:32:32-p272:64:64-i64:64-i128:128-f80:128-n8:16:32:64-S128"
target triple = "x86_64-pc-linux-gnu"

%struct.stats_t = type { double, double, double, i32, i32, i32 }
%struct.info_t = type { ptr, i16, ptr, i32, i32, i32, i32, i32, i32, i32, %struct.side_t, %struct.side_t, i32, %struct.memBuf_t, %struct.memBuf_t, i32, %struct.stats_t, %struct.stats_t }
%struct.side_t = type { i32, i32, i32 }
%struct.memBuf_t = type { [16486 x i8], i32, i32, i32, i32, %struct.COND_TYPE, i32 }
%struct.COND_TYPE = type { %union.pthread_mutex_t, %union.pthread_cond_t }
%union.pthread_mutex_t = type { %struct.__pthread_mutex_s }
%struct.__pthread_mutex_s = type { i32, i32, i32, i32, i32, i16, i16, %struct.__pthread_internal_list }
%struct.__pthread_internal_list = type { ptr, ptr }
%union.pthread_cond_t = type { %struct.__pthread_cond_s }
%struct.__pthread_cond_s = type { %union.__atomic_wide_counter, %union.__atomic_wide_counter, [2 x i32], [2 x i32], i32, i32, [2 x i32] }
%union.__atomic_wide_counter = type { i64 }

@stderr = external global ptr, align 8
@.str.7 = private unnamed_addr constant [26 x i8] c"%s L%d error %d for \22%s\22\0A\00", align 1
@.str.8 = private unnamed_addr constant [124 x i8] c"generated/home/dtcxzyw/WorkSpace/Projects/compilers/llvm-opt-benchmark/bench/wolfssl/wolfssl/examples/benchmark/tls_bench.c\00", align 1
@.str.10 = private unnamed_addr constant [19 x i8] c"thread call failed\00", align 1
@.str.100 = private unnamed_addr constant [41 x i8] c"wolfSSL_CondStart(&info->to_client.cond)\00", align 1
@.str.102 = private unnamed_addr constant [39 x i8] c"wolfSSL_CondEnd(&info->to_client.cond)\00", align 1
@.str.136 = private unnamed_addr constant [24 x i8] c"ServerMemSend overflow\0A\00", align 1
@.str.137 = private unnamed_addr constant [42 x i8] c"wolfSSL_CondSignal(&info->to_client.cond)\00", align 1

; Function Attrs: nounwind uwtable
define internal i32 @SocketSend(i32 noundef %0, ptr noundef %1, i32 noundef %2) #0 {
  %4 = alloca i32, align 4
  %5 = alloca i32, align 4
  %6 = alloca ptr, align 8
  %7 = alloca i32, align 4
  %8 = alloca i32, align 4
  %9 = alloca i32, align 4
  store i32 %0, ptr %5, align 4, !tbaa !8
  store ptr %1, ptr %6, align 8, !tbaa !10
  store i32 %2, ptr %7, align 4, !tbaa !8
  call void @llvm.lifetime.start.p0(i64 4, ptr %8) #12
  %10 = load i32, ptr %5, align 4, !tbaa !8
  %11 = load ptr, ptr %6, align 8, !tbaa !10
  %12 = load i32, ptr %7, align 4, !tbaa !8
  %13 = sext i32 %12 to i64
  %14 = call i64 @send(i32 noundef %10, ptr noundef %11, i64 noundef %13, i32 noundef 0)
  %15 = trunc i64 %14 to i32
  store i32 %15, ptr %8, align 4, !tbaa !8
  %16 = load i32, ptr %8, align 4, !tbaa !8
  %17 = icmp eq i32 %16, -1
  br i1 %17, label %18, label %26

18:                                               ; preds = %3
  %19 = call ptr @__errno_location() #14
  %20 = load i32, ptr %19, align 4, !tbaa !8
  switch i32 %20, label %25 [
    i32 11, label %21
    i32 104, label %22
    i32 4, label %23
    i32 32, label %24
  ]

21:                                               ; preds = %18
  store i32 -2, ptr %4, align 4
  store i32 1, ptr %9, align 4
  br label %33

22:                                               ; preds = %18
  store i32 -3, ptr %4, align 4
  store i32 1, ptr %9, align 4
  br label %33

23:                                               ; preds = %18
  store i32 -4, ptr %4, align 4
  store i32 1, ptr %9, align 4
  br label %33

24:                                               ; preds = %18
  store i32 -5, ptr %4, align 4
  store i32 1, ptr %9, align 4
  br label %33

25:                                               ; preds = %18
  store i32 -1, ptr %4, align 4
  store i32 1, ptr %9, align 4
  br label %33

26:                                               ; preds = %3
  %27 = load i32, ptr %8, align 4, !tbaa !8
  %28 = icmp eq i32 %27, 0
  br i1 %28, label %29, label %30

29:                                               ; preds = %26
  store i32 0, ptr %4, align 4
  store i32 1, ptr %9, align 4
  br label %33

30:                                               ; preds = %26
  br label %31

31:                                               ; preds = %30
  %32 = load i32, ptr %8, align 4, !tbaa !8
  store i32 %32, ptr %4, align 4
  store i32 1, ptr %9, align 4
  br label %33

33:                                               ; preds = %31, %29, %25, %24, %23, %22, %21
  call void @llvm.lifetime.end.p0(i64 4, ptr %8) #12
  %34 = load i32, ptr %4, align 4
  ret i32 %34
}

; Function Attrs: nounwind uwtable
define internal i32 @ServerMemSend(ptr noundef %0, ptr noundef %1, i32 noundef %2) #0 {
  %4 = alloca i32, align 4
  %5 = alloca ptr, align 8
  %6 = alloca ptr, align 8
  %7 = alloca i32, align 4
  %8 = alloca i32, align 4
  %9 = alloca i32, align 4
  %10 = alloca i32, align 4
  %11 = alloca i32, align 4
  store ptr %0, ptr %5, align 8, !tbaa !4
  store ptr %1, ptr %6, align 8, !tbaa !10
  store i32 %2, ptr %7, align 4, !tbaa !8
  br label %12

12:                                               ; preds = %3
  call void @llvm.lifetime.start.p0(i64 4, ptr %8) #12
  %13 = load ptr, ptr %5, align 8, !tbaa !4
  %14 = getelementptr inbounds nuw %struct.info_t, ptr %13, i32 0, i32 14
  %15 = getelementptr inbounds nuw %struct.memBuf_t, ptr %14, i32 0, i32 5
  %16 = call i32 @wolfSSL_CondStart(ptr noundef %15)
  store i32 %16, ptr %8, align 4, !tbaa !8
  %17 = load i32, ptr %8, align 4, !tbaa !8
  %18 = icmp ne i32 %17, 0
  br i1 %18, label %19, label %25

19:                                               ; preds = %12
  %20 = load i32, ptr %8, align 4, !tbaa !8
  %21 = call ptr @__errno_location() #14
  store i32 %20, ptr %21, align 4, !tbaa !8
  %22 = load ptr, ptr @stderr, align 8, !tbaa !20
  %23 = load i32, ptr %8, align 4, !tbaa !8
  %24 = call i32 (ptr, ptr, ...) @fprintf(ptr noundef %22, ptr noundef @.str.7, ptr noundef @.str.8, i32 noundef 440, i32 noundef %23, ptr noundef @.str.100) #12
  call void @err_sys(ptr noundef @.str.10) #15
  unreachable

25:                                               ; preds = %12
  call void @llvm.lifetime.end.p0(i64 4, ptr %8) #12
  br label %26

26:                                               ; preds = %25
  %27 = load ptr, ptr %5, align 8, !tbaa !4
  %28 = getelementptr inbounds nuw %struct.info_t, ptr %27, i32 0, i32 14
  %29 = getelementptr inbounds nuw %struct.memBuf_t, ptr %28, i32 0, i32 2
  %30 = load i32, ptr %29, align 4, !tbaa !110
  %31 = load i32, ptr %7, align 4, !tbaa !8
  %32 = add nsw i32 %30, %31
  %33 = icmp sgt i32 %32, 16486
  br i1 %33, label %34, label %52

34:                                               ; preds = %26
  br label %35

35:                                               ; preds = %34
  call void @llvm.lifetime.start.p0(i64 4, ptr %9) #12
  %36 = load ptr, ptr %5, align 8, !tbaa !4
  %37 = getelementptr inbounds nuw %struct.info_t, ptr %36, i32 0, i32 14
  %38 = getelementptr inbounds nuw %struct.memBuf_t, ptr %37, i32 0, i32 5
  %39 = call i32 @wolfSSL_CondEnd(ptr noundef %38)
  store i32 %39, ptr %9, align 4, !tbaa !8
  %40 = load i32, ptr %9, align 4, !tbaa !8
  %41 = icmp ne i32 %40, 0
  br i1 %41, label %42, label %48

42:                                               ; preds = %35
  %43 = load i32, ptr %9, align 4, !tbaa !8
  %44 = call ptr @__errno_location() #14
  store i32 %43, ptr %44, align 4, !tbaa !8
  %45 = load ptr, ptr @stderr, align 8, !tbaa !20
  %46 = load i32, ptr %9, align 4, !tbaa !8
  %47 = call i32 (ptr, ptr, ...) @fprintf(ptr noundef %45, ptr noundef @.str.7, ptr noundef @.str.8, i32 noundef 445, i32 noundef %46, ptr noundef @.str.102) #12
  call void @err_sys(ptr noundef @.str.10) #15
  unreachable

48:                                               ; preds = %35
  call void @llvm.lifetime.end.p0(i64 4, ptr %9) #12
  br label %49

49:                                               ; preds = %48
  %50 = load ptr, ptr @stderr, align 8, !tbaa !20
  %51 = call i32 (ptr, ptr, ...) @fprintf(ptr noundef %50, ptr noundef @.str.136) #12
  store i32 -1, ptr %4, align 4
  br label %108

52:                                               ; preds = %26
  %53 = load ptr, ptr %5, align 8, !tbaa !4
  %54 = getelementptr inbounds nuw %struct.info_t, ptr %53, i32 0, i32 14
  %55 = getelementptr inbounds nuw %struct.memBuf_t, ptr %54, i32 0, i32 0
  %56 = load ptr, ptr %5, align 8, !tbaa !4
  %57 = getelementptr inbounds nuw %struct.info_t, ptr %56, i32 0, i32 14
  %58 = getelementptr inbounds nuw %struct.memBuf_t, ptr %57, i32 0, i32 2
  %59 = load i32, ptr %58, align 4, !tbaa !110
  %60 = sext i32 %59 to i64
  %61 = getelementptr inbounds [16486 x i8], ptr %55, i64 0, i64 %60
  %62 = load ptr, ptr %6, align 8, !tbaa !10
  %63 = load i32, ptr %7, align 4, !tbaa !8
  %64 = sext i32 %63 to i64
  call void @llvm.memcpy.p0.p0.i64(ptr align 1 %61, ptr align 1 %62, i64 %64, i1 false)
  %65 = load i32, ptr %7, align 4, !tbaa !8
  %66 = load ptr, ptr %5, align 8, !tbaa !4
  %67 = getelementptr inbounds nuw %struct.info_t, ptr %66, i32 0, i32 14
  %68 = getelementptr inbounds nuw %struct.memBuf_t, ptr %67, i32 0, i32 2
  %69 = load i32, ptr %68, align 4, !tbaa !110
  %70 = add nsw i32 %69, %65
  store i32 %70, ptr %68, align 4, !tbaa !110
  %71 = load i32, ptr %7, align 4, !tbaa !8
  %72 = load ptr, ptr %5, align 8, !tbaa !4
  %73 = getelementptr inbounds nuw %struct.info_t, ptr %72, i32 0, i32 14
  %74 = getelementptr inbounds nuw %struct.memBuf_t, ptr %73, i32 0, i32 1
  %75 = load i32, ptr %74, align 8, !tbaa !114
  %76 = add nsw i32 %75, %71
  store i32 %76, ptr %74, align 8, !tbaa !114
  br label %77

77:                                               ; preds = %52
  call void @llvm.lifetime.start.p0(i64 4, ptr %10) #12
  %78 = load ptr, ptr %5, align 8, !tbaa !4
  %79 = getelementptr inbounds nuw %struct.info_t, ptr %78, i32 0, i32 14
  %80 = getelementptr inbounds nuw %struct.memBuf_t, ptr %79, i32 0, i32 5
  %81 = call i32 @wolfSSL_CondSignal(ptr noundef %80)
  store i32 %81, ptr %10, align 4, !tbaa !8
  %82 = load i32, ptr %10, align 4, !tbaa !8
  %83 = icmp ne i32 %82, 0
  br i1 %83, label %84, label %90

84:                                               ; preds = %77
  %85 = load i32, ptr %10, align 4, !tbaa !8
  %86 = call ptr @__errno_location() #14
  store i32 %85, ptr %86, align 4, !tbaa !8
  %87 = load ptr, ptr @stderr, align 8, !tbaa !20
  %88 = load i32, ptr %10, align 4, !tbaa !8
  %89 = call i32 (ptr, ptr, ...) @fprintf(ptr noundef %87, ptr noundef @.str.7, ptr noundef @.str.8, i32 noundef 459, i32 noundef %88, ptr noundef @.str.137) #12
  call void @err_sys(ptr noundef @.str.10) #15
  unreachable

90:                                               ; preds = %77
  call void @llvm.lifetime.end.p0(i64 4, ptr %10) #12
  br label %91

91:                                               ; preds = %90
  br label %92

92:                                               ; preds = %91
  call void @llvm.lifetime.start.p0(i64 4, ptr %11) #12
  %93 = load ptr, ptr %5, align 8, !tbaa !4
  %94 = getelementptr inbounds nuw %struct.info_t, ptr %93, i32 0, i32 14
  %95 = getelementptr inbounds nuw %struct.memBuf_t, ptr %94, i32 0, i32 5
  %96 = call i32 @wolfSSL_CondEnd(ptr noundef %95)
  store i32 %96, ptr %11, align 4, !tbaa !8
  %97 = load i32, ptr %11, align 4, !tbaa !8
  %98 = icmp ne i32 %97, 0
  br i1 %98, label %99, label %105

99:                                               ; preds = %92
  %100 = load i32, ptr %11, align 4, !tbaa !8
  %101 = call ptr @__errno_location() #14
  store i32 %100, ptr %101, align 4, !tbaa !8
  %102 = load ptr, ptr @stderr, align 8, !tbaa !20
  %103 = load i32, ptr %11, align 4, !tbaa !8
  %104 = call i32 (ptr, ptr, ...) @fprintf(ptr noundef %102, ptr noundef @.str.7, ptr noundef @.str.8, i32 noundef 460, i32 noundef %103, ptr noundef @.str.102) #12
  call void @err_sys(ptr noundef @.str.10) #15
  unreachable

105:                                              ; preds = %92
  call void @llvm.lifetime.end.p0(i64 4, ptr %11) #12
  br label %106

106:                                              ; preds = %105
  %107 = load i32, ptr %7, align 4, !tbaa !8
  store i32 %107, ptr %4, align 4
  br label %108

108:                                              ; preds = %106, %49
  %109 = load i32, ptr %4, align 4
  ret i32 %109
}

; Function Attrs: nounwind uwtable
define internal i32 @ServerSend(ptr noundef %0, ptr noundef %1, i32 noundef %2, ptr noundef %3) #0 {
  %5 = alloca i32, align 4
  %6 = alloca ptr, align 8
  %7 = alloca ptr, align 8
  %8 = alloca i32, align 4
  %9 = alloca ptr, align 8
  %10 = alloca ptr, align 8
  %11 = alloca i32, align 4
  store ptr %0, ptr %6, align 8, !tbaa !78
  store ptr %1, ptr %7, align 8, !tbaa !10
  store i32 %2, ptr %8, align 4, !tbaa !8
  store ptr %3, ptr %9, align 8, !tbaa !4
  call void @llvm.lifetime.start.p0(i64 8, ptr %10) #12
  %12 = load ptr, ptr %9, align 8, !tbaa !4
  store ptr %12, ptr %10, align 8, !tbaa !4
  %13 = load ptr, ptr %10, align 8, !tbaa !4
  %14 = getelementptr inbounds nuw %struct.info_t, ptr %13, i32 0, i32 12
  %15 = load i32, ptr %14, align 4, !tbaa !48
  %16 = icmp ne i32 %15, 0
  br i1 %16, label %17, label %22

17:                                               ; preds = %4
  %18 = load ptr, ptr %10, align 8, !tbaa !4
  %19 = load ptr, ptr %7, align 8, !tbaa !10
  %20 = load i32, ptr %8, align 4, !tbaa !8
  %21 = call i32 @ServerMemSend(ptr noundef %18, ptr noundef %19, i32 noundef %20)
  store i32 %21, ptr %5, align 4
  store i32 1, ptr %11, align 4
  br label %30

22:                                               ; preds = %4
  %23 = load ptr, ptr %10, align 8, !tbaa !4
  %24 = getelementptr inbounds nuw %struct.info_t, ptr %23, i32 0, i32 11
  %25 = getelementptr inbounds nuw %struct.side_t, ptr %24, i32 0, i32 1
  %26 = load i32, ptr %25, align 4, !tbaa !46
  %27 = load ptr, ptr %7, align 8, !tbaa !10
  %28 = load i32, ptr %8, align 4, !tbaa !8
  %29 = call i32 @SocketSend(i32 noundef %26, ptr noundef %27, i32 noundef %28)
  store i32 %29, ptr %5, align 4
  store i32 1, ptr %11, align 4
  br label %30

30:                                               ; preds = %22, %17
  call void @llvm.lifetime.end.p0(i64 8, ptr %10) #12
  %31 = load i32, ptr %5, align 4
  ret i32 %31
}