; Function Attrs: nounwind uwtable
define internal noundef i32 @ServerSend(ptr readnone captures(none) %0, ptr noundef %1, i32 noundef %2, ptr noundef %3) #0 {
  %5 = getelementptr inbounds nuw i8, ptr %3, i64 76
  %6 = load i32, ptr %5, align 4, !tbaa !46
  %.not = icmp eq i32 %6, 0
  br i1 %.not, label %49, label %7

7:                                                ; preds = %4
  %8 = getelementptr inbounds nuw i8, ptr %3, i64 16680
  %9 = getelementptr inbounds nuw i8, ptr %3, i64 33184
  %10 = tail call i32 @wolfSSL_CondStart(ptr noundef nonnull %9) #17
  %.not.i = icmp eq i32 %10, 0
  br i1 %.not.i, label %15, label %11

11:                                               ; preds = %7
  %12 = tail call ptr @__errno_location() #21
  store i32 %10, ptr %12, align 4, !tbaa !4
  %13 = load ptr, ptr @stderr, align 8, !tbaa !19
  %14 = tail call i32 (ptr, ptr, ...) @fprintf(ptr noundef %13, ptr noundef nonnull @.str.7, ptr noundef nonnull @.str.8, i32 noundef 440, i32 noundef %10, ptr noundef nonnull @.str.100) #18
  tail call fastcc void @err_sys(ptr noundef nonnull @.str.10) #22
  unreachable

15:                                               ; preds = %7
  %16 = getelementptr inbounds nuw i8, ptr %3, i64 33172
  %17 = load i32, ptr %16, align 4, !tbaa !93
  %18 = add nsw i32 %17, %2
  %19 = icmp sgt i32 %18, 16486
  br i1 %19, label %20, label %29

20:                                               ; preds = %15
  %21 = tail call i32 @wolfSSL_CondEnd(ptr noundef nonnull %9) #17
  %.not33.i = icmp eq i32 %21, 0
  br i1 %.not33.i, label %26, label %22

22:                                               ; preds = %20
  %23 = tail call ptr @__errno_location() #21
  store i32 %21, ptr %23, align 4, !tbaa !4
  %24 = load ptr, ptr @stderr, align 8, !tbaa !19
  %25 = tail call i32 (ptr, ptr, ...) @fprintf(ptr noundef %24, ptr noundef nonnull @.str.7, ptr noundef nonnull @.str.8, i32 noundef 445, i32 noundef %21, ptr noundef nonnull @.str.102) #18
  tail call fastcc void @err_sys(ptr noundef nonnull @.str.10) #22
  unreachable

26:                                               ; preds = %20
  %27 = load ptr, ptr @stderr, align 8, !tbaa !19
  %28 = tail call i64 @fwrite(ptr nonnull @.str.136, i64 23, i64 1, ptr %27) #19
  br label %ServerMemSend.exit

29:                                               ; preds = %15
  %30 = sext i32 %17 to i64
  %31 = getelementptr inbounds [16486 x i8], ptr %8, i64 0, i64 %30
  %32 = sext i32 %2 to i64
  tail call void @llvm.memcpy.p0.p0.i64(ptr nonnull align 1 %31, ptr readonly align 1 %1, i64 %32, i1 false)
  %33 = load i32, ptr %16, align 4, !tbaa !93
  %34 = add nsw i32 %33, %2
  store i32 %34, ptr %16, align 4, !tbaa !93
  %35 = getelementptr inbounds nuw i8, ptr %3, i64 33168
  %36 = load i32, ptr %35, align 8, !tbaa !97
  %37 = add nsw i32 %36, %2
  store i32 %37, ptr %35, align 8, !tbaa !97
  %38 = tail call i32 @wolfSSL_CondSignal(ptr noundef nonnull %9) #17
  %.not31.i = icmp eq i32 %38, 0
  br i1 %.not31.i, label %43, label %39

39:                                               ; preds = %29
  %40 = tail call ptr @__errno_location() #21
  store i32 %38, ptr %40, align 4, !tbaa !4
  %41 = load ptr, ptr @stderr, align 8, !tbaa !19
  %42 = tail call i32 (ptr, ptr, ...) @fprintf(ptr noundef %41, ptr noundef nonnull @.str.7, ptr noundef nonnull @.str.8, i32 noundef 459, i32 noundef %38, ptr noundef nonnull @.str.137) #18
  tail call fastcc void @err_sys(ptr noundef nonnull @.str.10) #22
  unreachable

43:                                               ; preds = %29
  %44 = tail call i32 @wolfSSL_CondEnd(ptr noundef nonnull %9) #17
  %.not32.i = icmp eq i32 %44, 0
  br i1 %.not32.i, label %ServerMemSend.exit, label %45

45:                                               ; preds = %43
  %46 = tail call ptr @__errno_location() #21
  store i32 %44, ptr %46, align 4, !tbaa !4
  %47 = load ptr, ptr @stderr, align 8, !tbaa !19
  %48 = tail call i32 (ptr, ptr, ...) @fprintf(ptr noundef %47, ptr noundef nonnull @.str.7, ptr noundef nonnull @.str.8, i32 noundef 460, i32 noundef %44, ptr noundef nonnull @.str.102) #18
  tail call fastcc void @err_sys(ptr noundef nonnull @.str.10) #22
  unreachable

49:                                               ; preds = %4
  %50 = getelementptr inbounds nuw i8, ptr %3, i64 68
  %51 = load i32, ptr %50, align 4, !tbaa !44
  %52 = sext i32 %2 to i64
  %53 = tail call i64 @send(i32 noundef %51, ptr noundef %1, i64 noundef %52, i32 noundef 0) #17
  %54 = trunc i64 %53 to i32
  %cond = icmp eq i32 %54, -1
  br i1 %cond, label %55, label %ServerMemSend.exit

55:                                               ; preds = %49
  %56 = tail call ptr @__errno_location() #21
  %57 = load i32, ptr %56, align 4, !tbaa !4
  switch i32 %57, label %61 [
    i32 11, label %ServerMemSend.exit
    i32 104, label %58
    i32 4, label %59
    i32 32, label %60
  ]

58:                                               ; preds = %55
  br label %ServerMemSend.exit

59:                                               ; preds = %55
  br label %ServerMemSend.exit

60:                                               ; preds = %55
  br label %ServerMemSend.exit

61:                                               ; preds = %55
  br label %ServerMemSend.exit

ServerMemSend.exit:                               ; preds = %49, %61, %60, %59, %58, %55, %43, %26
  %.0 = phi i32 [ -1, %26 ], [ %2, %43 ], [ -1, %61 ], [ -5, %60 ], [ -4, %59 ], [ -3, %58 ], [ -2, %55 ], [ %54, %49 ]
  ret i32 %.0
}